(dp0
S'neighbors'
p1
(lp2
(S'127.0.0.1'
p3
I8471
tp4
a(S'127.0.0.1'
p5
I8472
tp6
a(S'127.0.0.1'
p7
I8470
tp8
a(S'127.0.0.1'
p9
I8467
tp10
a(S'127.0.0.1'
p11
I8500
tp12
asS'alpha'
p13
I3
sS'ksize'
p14
I20
sS'id'
p15
S'\x11\xbb\x15\x89%o.\xe8B\xec\xb6\xbc\xa2\x95\xd2\xe0Y\x89\x87\xf4'
p16
s.