(dp0
S'neighbors'
p1
(lp2
(S'127.0.0.1'
p3
I8472
tp4
a(S'127.0.0.1'
p5
I8500
tp6
a(S'127.0.0.1'
p7
I8471
tp8
a(S'127.0.0.1'
p9
I8467
tp10
a(S'127.0.0.1'
p11
I8470
tp12
asS'alpha'
p13
I3
sS'ksize'
p14
I20
sS'id'
p15
S'\x14G\x01\xf8\xb88R\xcdMkkd\xf9J\t\xba\x9cB}U'
p16
s.